Certificate:
    Data:
        Version: 3 (0x2)
        Serial Number:
            34:4a:69:d4:26:6c:72:eb:a7:24:59:a9:4f:cc:64:d4:94:b8:5f:16
        Signature Algorithm: sha256WithRSAEncryption
        Issuer: CN=KriptoITS Root CA 20250619
        Validity
            Not Before: Jun 19 14:40:59 2025 GMT
            Not After : Jun 21 14:40:59 2030 GMT
        Subject: C=ID, O=KriptoITS, OU=PKI, CN=KriptoITS Demo Issuing CA 20250619
        Subject Public Key Info:
            Public Key Algorithm: rsaEncryption
                Public-Key: (3072 bit)
                Modulus:
                    00:b1:cb:10:da:4a:9e:91:2a:bd:9d:0c:51:cf:48:
                    e4:e5:e6:b7:9e:73:36:72:d7:04:5c:96:eb:0d:71:
                    e9:13:9d:26:9d:d0:51:df:e3:59:d5:87:3d:6e:85:
                    ab:e9:a2:95:03:28:fd:34:3d:79:aa:cf:65:fa:f5:
                    54:2f:08:8d:f6:bf:47:13:06:32:b7:ca:be:2c:7f:
                    87:f9:7f:2f:b4:f0:be:30:5a:a0:51:a9:dd:f8:7c:
                    6f:0f:8e:69:c7:86:f3:8a:e4:61:c9:e0:8c:f1:b9:
                    b4:74:c4:a7:a2:d6:bb:75:33:ca:2c:e3:e4:d0:6c:
                    cb:e4:9f:11:d7:00:a0:88:4c:1d:fa:e7:de:61:92:
                    43:d8:33:cb:a0:5f:e1:5c:a9:a2:8c:f6:33:03:58:
                    2f:16:52:fe:70:df:c5:6a:09:3f:fe:0c:f8:14:84:
                    06:3a:fb:9a:c6:2f:60:f8:11:6b:cf:07:f6:02:ae:
                    0b:f2:0e:5f:1e:10:7a:dd:90:bd:da:8e:40:16:b1:
                    f6:4a:37:0b:36:45:82:c9:9b:e3:a8:71:9b:04:0a:
                    83:0b:a8:02:24:2e:36:fa:c5:a1:1d:a8:3c:1c:9a:
                    87:f1:ce:d9:86:06:79:e4:c5:8a:fe:ae:e3:87:60:
                    37:73:a2:6b:d1:92:22:15:0f:05:36:fa:64:d7:2b:
                    11:c7:7a:1a:3e:51:f7:a2:8d:a5:a7:0d:a4:f4:08:
                    dd:c5:91:e0:18:a0:63:18:78:45:5d:bd:02:44:9d:
                    e7:c9:32:a2:81:9c:d3:26:9b:47:73:4f:19:10:a3:
                    26:39:43:10:04:6f:2a:c7:0b:63:50:83:2e:ca:8b:
                    f4:29:88:62:46:bb:27:dc:58:52:ff:a4:64:9b:ca:
                    05:1c:58:39:38:6e:d0:f6:4c:c0:6f:a7:b0:90:79:
                    90:8f:d1:d1:60:d4:be:a3:1e:f6:42:f2:c7:e6:12:
                    a4:71:cb:9f:c2:7e:79:0e:cd:fe:4e:94:fb:ae:dc:
                    9b:0b:07:06:22:f0:51:75:e6:b7
                Exponent: 65537 (0x10001)
        X509v3 extensions:
            X509v3 Subject Key Identifier: 
                2B:15:19:2E:B0:F0:89:20:3B:84:21:C0:60:3A:31:B2:98:6B:B6:82
            X509v3 Key Usage: 
                Digital Signature, Certificate Sign, CRL Sign
            X509v3 Basic Constraints: critical
                CA:TRUE
            X509v3 Authority Key Identifier: 
                keyid:55:F6:0B:6A:34:9C:86:50:31:16:71:84:10:32:6E:20:9E:FD:7F:E1
                DirName:/CN=KriptoITS Root CA 20250619
                serial:0A:37:DF:4C:B2:89:C7:87:72:F8:E5:12:1B:E8:78:8E:8D:78:8D:77
    Signature Algorithm: sha256WithRSAEncryption
    Signature Value:
        c4:65:8d:28:f6:2d:52:6c:6c:47:d7:5b:98:48:fb:37:3d:f6:
        e4:89:20:bb:65:19:c8:c7:7b:38:7e:2f:fd:51:1f:78:85:56:
        53:a9:cb:17:25:09:b1:f6:49:9e:2c:b4:d3:3a:9e:fb:1c:d2:
        26:59:ad:ca:5e:43:4b:56:a2:5f:2b:b6:a8:6e:ac:6f:54:74:
        1f:21:6e:55:95:10:cf:1c:35:3e:d5:3c:f9:a8:23:bc:a7:7c:
        49:4f:24:50:bf:29:44:be:8c:3c:18:82:90:b1:34:2a:ba:2f:
        5e:49:a2:f4:8c:9a:74:da:4e:ad:dc:fb:76:96:82:ce:4f:b9:
        ca:18:a2:d6:2c:3f:61:5f:9d:42:84:aa:ad:c7:e5:d8:f9:53:
        54:b0:b7:b7:f7:96:1f:b5:3d:a1:d9:2b:54:0b:5f:ff:b0:b8:
        b1:34:58:5e:d6:ad:5a:b2:83:b4:61:2a:a5:90:ec:7f:70:0d:
        dc:7f:3a:d6:2e:e9:e5:5c:19:64:b8:e1:33:17:18:be:4d:a6:
        ba:dc:3c:bb:f6:10:83:ef:3c:cb:aa:8d:c8:73:c3:f2:e7:b9:
        9c:c2:e1:6f:c1:31:e5:63:b7:7f:8f:7f:07:b2:8f:3b:3d:48:
        4c:15:8a:13:1e:64:f3:5c:c9:0a:0b:f5:a5:a2:ba:fc:41:51:
        3e:f5:22:45:d9:6d:24:25:2c:13:42:ff:7a:34:df:82:f2:ee:
        4f:36:94:7a:8c:c4:e2:5d:c0:82:e9:9b:39:be:35:fc:e1:61:
        95:63:bb:73:01:2f:7c:a4:a8:51:bf:ba:23:4d:4e:f2:3b:dc:
        7f:34:77:06:9f:2d:95:95:0d:37:a1:2b:92:c1:86:1a:1a:f7:
        c0:35:8d:8f:51:f4:f5:d9:6d:b5:37:8c:6d:71:97:38:fb:a7:
        b6:9e:bb:b2:02:ae:f8:ad:c4:b3:a8:44:22:e8:94:59:0a:f7:
        72:1b:c2:bd:d8:20:fb:94:8a:c7:e6:dc:05:27:e7:02:1f:1f:
        17:89:1a:51:ed:7d
-----BEGIN CERTIFICATE-----
MIIEsjCCAxqgAwIBAgIUNEpp1CZscuunJFmpT8xk1JS4XxYwDQYJKoZIhvcNAQEL
BQAwJTEjMCEGA1UEAwwaS3JpcHRvSVRTIFJvb3QgQ0EgMjAyNTA2MTkwHhcNMjUw
NjE5MTQ0MDU5WhcNMzAwNjIxMTQ0MDU5WjBcMQswCQYDVQQGEwJJRDESMBAGA1UE
CgwJS3JpcHRvSVRTMQwwCgYDVQQLDANQS0kxKzApBgNVBAMMIktyaXB0b0lUUyBE
ZW1vIElzc3VpbmcgQ0EgMjAyNTA2MTkwggGiMA0GCSqGSIb3DQEBAQUAA4IBjwAw
ggGKAoIBgQCxyxDaSp6RKr2dDFHPSOTl5reeczZy1wRclusNcekTnSad0FHf41nV
hz1uhavpopUDKP00PXmqz2X69VQvCI32v0cTBjK3yr4sf4f5fy+08L4wWqBRqd34
fG8PjmnHhvOK5GHJ4IzxubR0xKei1rt1M8os4+TQbMvknxHXAKCITB36595hkkPY
M8ugX+FcqaKM9jMDWC8WUv5w38VqCT/+DPgUhAY6+5rGL2D4EWvPB/YCrgvyDl8e
EHrdkL3ajkAWsfZKNws2RYLJm+OocZsECoMLqAIkLjb6xaEdqDwcmofxztmGBnnk
xYr+ruOHYDdzomvRkiIVDwU2+mTXKxHHeho+UfeijaWnDaT0CN3FkeAYoGMYeEVd
vQJEnefJMqKBnNMmm0dzTxkQoyY5QxAEbyrHC2NQgy7Ki/QpiGJGuyfcWFL/pGSb
ygUcWDk4btD2TMBvp7CQeZCP0dFg1L6jHvZC8sfmEqRxy5/CfnkOzf5OlPuu3JsL
BwYi8FF15rcCAwEAAaOBojCBnzAdBgNVHQ4EFgQUKxUZLrDwiSA7hCHAYDoxsphr
toIwCwYDVR0PBAQDAgGGMA8GA1UdEwEB/wQFMAMBAf8wYAYDVR0jBFkwV4AUVfYL
ajSchlAxFnGEEDJuIJ79f+GhKaQnMCUxIzAhBgNVBAMMGktyaXB0b0lUUyBSb290
IENBIDIwMjUwNjE5ghQKN99MsonHh3L45RIb6HiOjXiNdzANBgkqhkiG9w0BAQsF
AAOCAYEAxGWNKPYtUmxsR9dbmEj7Nz325Ikgu2UZyMd7OH4v/VEfeIVWU6nLFyUJ
sfZJniy00zqe+xzSJlmtyl5DS1aiXyu2qG6sb1R0HyFuVZUQzxw1PtU8+agjvKd8
SU8kUL8pRL6MPBiCkLE0KrovXkmi9IyadNpOrdz7dpaCzk+5yhii1iw/YV+dQoSq
rcfl2PlTVLC3t/eWH7U9odkrVAtf/7C4sTRYXtatWrKDtGEqpZDsf3AN3H861i7p
5VwZZLjhMxcYvk2mutw8u/YQg+88y6qNyHPD8ue5nMLhb8Ex5WO3f49/B7KPOz1I
TBWKEx5k81zJCgv1paK6/EFRPvUiRdltJCUsE0L/ejTfgvLuTzaUeozE4l3Agumb
Ob41/OFhlWO7cwEvfKSoUb+6I01O8jvcfzR3Bp8tlZUNN6ErksGGGhr3wDWNj1H0
9dlttTeMbXGXOPuntp67sgKu+K3Es6hEIuiUWQr3chvCvdgg+5SKx+bcBSfnAh8f
F4kaUe19
-----END CERTIFICATE-----
