Certificate:
    Data:
        Version: 3 (0x2)
        Serial Number:
            77:c1:d2:ad:63:1d:46:ba:da:70:75:71:57:8a:cc:bd:42:b6:3e:94
        Signature Algorithm: sha256WithRSAEncryption
        Issuer: C=ID, O=KriptoITS, OU=PKI, CN=KriptoITS Demo Issuing CA 20250619
        Validity
            Not Before: Jun 19 23:05:41 2025 GMT
            Not After : Jun 19 23:05:41 2026 GMT
        Subject: CN=openxpki-its.jhr.my.id:scep-ra
        Subject Public Key Info:
            Public Key Algorithm: rsaEncryption
                Public-Key: (3072 bit)
                Modulus:
                    00:cf:72:2e:c9:20:09:55:9b:42:33:8c:3e:f3:9d:
                    d9:eb:ca:8c:fe:07:bf:af:d5:59:b4:06:97:41:9b:
                    22:3d:23:60:40:75:45:1a:f8:bd:a9:24:3b:2e:d0:
                    22:ec:e2:72:15:91:50:6f:24:df:c1:65:f8:b6:a5:
                    80:46:d1:a6:93:e7:05:1f:60:e5:49:8a:62:7c:ba:
                    d7:24:ec:a0:89:40:2b:61:0a:5e:89:0c:e0:5f:6c:
                    1f:32:a0:c7:57:2e:31:cf:95:82:71:1b:ef:98:77:
                    68:52:4c:c0:75:2b:dd:82:1f:d3:94:30:72:f6:f0:
                    67:b8:05:97:6d:a5:56:b3:cf:88:c2:ba:70:23:53:
                    ba:a2:b3:93:9a:cf:d3:cf:12:03:b2:0d:ea:a8:09:
                    1b:a8:80:03:dd:01:14:9d:a3:46:a1:1e:52:d1:08:
                    da:58:4d:e8:0a:6f:2a:cb:bd:4b:3d:21:3f:45:30:
                    c9:da:33:f7:85:ff:4f:cb:3d:0e:2f:b2:ca:53:7b:
                    f9:95:65:96:e5:03:1a:d3:7c:a5:4c:00:da:41:78:
                    74:85:fd:a8:03:11:b0:01:7f:61:75:8b:ae:34:c0:
                    19:7b:1a:57:ac:d1:7c:17:0c:18:4e:4d:ec:6a:46:
                    59:64:ff:ea:4b:ee:6a:f2:15:16:b9:34:83:11:72:
                    0d:96:88:0c:f4:01:58:c2:3e:64:8c:1d:93:ea:09:
                    90:72:ae:b0:48:fc:cb:6b:2b:dc:64:32:b5:af:a4:
                    58:1c:bc:59:e4:fb:e6:43:6c:a5:77:9a:b1:29:93:
                    10:ab:d2:8b:8c:4f:36:0a:14:09:6b:ca:15:2c:6f:
                    97:6e:6a:a2:9b:93:f7:03:27:05:b4:0e:08:10:e9:
                    40:56:3d:f4:c8:4f:bc:a5:2f:c9:d4:b2:e0:83:7e:
                    21:e4:c0:60:eb:37:a7:4a:7b:b7:4e:f1:6e:03:02:
                    70:3e:79:35:b2:ac:3f:72:6d:45:e9:86:25:07:41:
                    18:11:41:5a:f3:ce:5c:51:d0:e7
                Exponent: 65537 (0x10001)
        X509v3 extensions:
            X509v3 Subject Key Identifier: 
                EF:74:00:E0:3B:C0:0A:D3:7E:D0:1D:09:36:75:55:8A:B9:8B:04:F9
            X509v3 Key Usage: 
                Digital Signature, Key Encipherment
            X509v3 Basic Constraints: 
                CA:FALSE
            X509v3 Authority Key Identifier: 
                18:7D:15:70:C4:5B:38:05:AF:5B:4E:00:5B:0C:62:CC:3F:C5:B2:25
    Signature Algorithm: sha256WithRSAEncryption
    Signature Value:
        c2:fb:ca:29:9c:e0:77:42:8c:8b:f8:0a:22:79:b8:c0:8b:b7:
        6f:3e:b3:2e:7a:fa:b9:49:7c:23:47:e7:3d:8e:ba:db:c1:61:
        c2:45:53:3f:ea:57:ac:94:7f:92:84:d1:54:13:19:15:c3:91:
        45:a6:73:73:23:a4:c4:d5:7d:68:3f:37:36:25:5a:98:4f:57:
        13:9c:73:31:9b:78:13:84:72:df:a9:80:0e:50:fb:48:c2:a6:
        2d:18:06:ee:cb:62:00:3d:8e:29:83:5a:d2:78:5f:08:68:37:
        4a:d9:2d:3b:e5:ce:91:f4:42:10:ff:72:9d:8c:bb:d3:55:03:
        d1:44:44:92:94:16:e5:f2:d4:4e:75:12:ba:7c:3b:e4:7d:de:
        e1:86:01:e0:d5:3d:07:fd:d1:48:b3:5d:28:31:6b:3c:c1:48:
        52:69:e2:a3:62:39:98:a8:6f:68:c3:79:ec:45:1e:cb:b5:93:
        c2:c6:b8:a0:c8:7e:64:88:d1:9b:02:3c:52:de:48:0a:ff:38:
        a5:01:ba:01:5b:d0:7f:fe:f6:00:f3:0f:15:31:19:5b:e7:06:
        0e:ab:64:19:d1:2c:eb:d9:7a:be:26:45:73:90:84:96:34:bc:
        8a:35:9f:51:44:33:05:20:c1:ab:30:69:e3:27:9a:3a:8d:8c:
        b8:35:af:1f:43:ee:11:00:ec:07:de:cd:0c:f5:76:66:9e:7f:
        af:c5:83:e8:ec:8f:91:32:90:ab:8b:2f:5a:8c:f1:aa:b0:f4:
        6c:4d:b9:c3:97:b5:65:1b:cf:e3:18:04:77:0c:de:81:4e:e3:
        7a:c4:25:63:15:39:e5:5d:a3:ca:2e:8d:36:07:f5:59:b4:0c:
        6e:5e:90:34:4c:3b:cf:74:05:bd:45:e9:ce:d1:48:b6:4f:79:
        a1:a7:bc:1e:dd:0e:18:33:58:e1:64:d8:78:5b:ba:e8:8d:bc:
        f3:52:27:4c:9e:8d:7c:42:18:fc:dc:61:e0:ae:33:f6:f7:81:
        be:19:64:14:85:07
-----BEGIN CERTIFICATE-----
MIIEbTCCAtWgAwIBAgIUd8HSrWMdRrracHVxV4rMvUK2PpQwDQYJKoZIhvcNAQEL
BQAwXDELMAkGA1UEBhMCSUQxEjAQBgNVBAoMCUtyaXB0b0lUUzEMMAoGA1UECwwD
UEtJMSswKQYDVQQDDCJLcmlwdG9JVFMgRGVtbyBJc3N1aW5nIENBIDIwMjUwNjE5
MB4XDTI1MDYxOTIzMDU0MVoXDTI2MDYxOTIzMDU0MVowKTEnMCUGA1UEAwweb3Bl
bnhwa2ktaXRzLmpoci5teS5pZDpzY2VwLXJhMIIBojANBgkqhkiG9w0BAQEFAAOC
AY8AMIIBigKCAYEAz3IuySAJVZtCM4w+853Z68qM/ge/r9VZtAaXQZsiPSNgQHVF
Gvi9qSQ7LtAi7OJyFZFQbyTfwWX4tqWARtGmk+cFH2DlSYpifLrXJOygiUArYQpe
iQzgX2wfMqDHVy4xz5WCcRvvmHdoUkzAdSvdgh/TlDBy9vBnuAWXbaVWs8+Iwrpw
I1O6orOTms/TzxIDsg3qqAkbqIAD3QEUnaNGoR5S0QjaWE3oCm8qy71LPSE/RTDJ
2jP3hf9Pyz0OL7LKU3v5lWWW5QMa03ylTADaQXh0hf2oAxGwAX9hdYuuNMAZexpX
rNF8FwwYTk3sakZZZP/qS+5q8hUWuTSDEXINlogM9AFYwj5kjB2T6gmQcq6wSPzL
ayvcZDK1r6RYHLxZ5PvmQ2yld5qxKZMQq9KLjE82ChQJa8oVLG+Xbmqim5P3AycF
tA4IEOlAVj30yE+8pS/J1LLgg34h5MBg6zenSnu3TvFuAwJwPnk1sqw/cm1F6YYl
B0EYEUFa885cUdDnAgMBAAGjWjBYMB0GA1UdDgQWBBTvdADgO8AK037QHQk2dVWK
uYsE+TALBgNVHQ8EBAMCBaAwCQYDVR0TBAIwADAfBgNVHSMEGDAWgBQYfRVwxFs4
Ba9bTgBbDGLMP8WyJTANBgkqhkiG9w0BAQsFAAOCAYEAwvvKKZzgd0KMi/gKInm4
wIu3bz6zLnr6uUl8I0fnPY6628FhwkVTP+pXrJR/koTRVBMZFcORRaZzcyOkxNV9
aD83NiVamE9XE5xzMZt4E4Ry36mADlD7SMKmLRgG7stiAD2OKYNa0nhfCGg3Stkt
O+XOkfRCEP9ynYy701UD0UREkpQW5fLUTnUSunw75H3e4YYB4NU9B/3RSLNdKDFr
PMFIUmnio2I5mKhvaMN57EUey7WTwsa4oMh+ZIjRmwI8Ut5ICv84pQG6AVvQf/72
APMPFTEZW+cGDqtkGdEs69l6viZFc5CEljS8ijWfUUQzBSDBqzBp4yeaOo2MuDWv
H0PuEQDsB97NDPV2Zp5/r8WD6OyPkTKQq4svWozxqrD0bE25w5e1ZRvP4xgEdwze
gU7jesQlYxU55V2jyi6NNgf1WbQMbl6QNEw7z3QFvUXpztFItk95oae8Ht0OGDNY
4WTYeFu66I2881InTJ6NfEIY/Nxh4K4z9veBvhlkFIUH
-----END CERTIFICATE-----
