Certificate:
    Data:
        Version: 3 (0x2)
        Serial Number:
            77:c1:d2:ad:63:1d:46:ba:da:70:75:71:57:8a:cc:bd:42:b6:3e:93
        Signature Algorithm: sha256WithRSAEncryption
        Issuer: CN=KriptoITS Root CA 20250619
        Validity
            Not Before: Jun 19 23:05:38 2025 GMT
            Not After : Jun 21 23:05:38 2030 GMT
        Subject: C=ID, O=KriptoITS, OU=PKI, CN=KriptoITS Demo Issuing CA 20250619
        Subject Public Key Info:
            Public Key Algorithm: rsaEncryption
                Public-Key: (3072 bit)
                Modulus:
                    00:d7:5a:a9:ae:98:dd:04:aa:58:bd:a1:ee:96:64:
                    3a:c8:79:60:20:86:59:85:7c:89:dc:3b:5c:c3:14:
                    78:ae:c9:6d:e1:03:f9:b9:9f:a7:a4:e2:c2:6a:20:
                    f0:6d:08:84:db:b4:4d:b5:d3:58:e3:f0:ff:e6:cd:
                    f7:e9:41:72:02:f5:09:27:12:ba:66:bd:9a:98:ba:
                    a6:bb:25:73:93:0d:c6:a0:13:b2:62:8b:77:04:54:
                    07:89:2d:d2:5d:38:58:54:2c:c5:e2:b5:42:4e:0a:
                    ad:42:80:ea:25:66:07:31:11:92:f0:8b:80:80:4d:
                    37:40:c8:16:1e:84:0b:81:5c:f7:30:47:66:5f:13:
                    37:54:77:7f:77:72:e3:84:b5:5b:f1:ef:e1:0a:43:
                    17:d8:b2:4a:2a:93:b8:b3:07:3d:d9:76:bf:54:ab:
                    2a:34:14:f7:d9:f7:09:30:a2:47:4a:f3:4d:b8:d2:
                    e8:3c:28:b9:bf:e2:d2:b9:2f:cf:ff:8a:9b:7a:92:
                    03:36:e8:2a:5b:da:3a:a4:77:f2:62:96:5a:84:2e:
                    11:29:e1:2d:db:d7:c7:be:f9:6c:02:f7:a6:ad:a7:
                    46:54:2d:53:c5:b3:89:85:cd:ce:da:58:41:a6:97:
                    fc:cc:ba:00:51:15:bb:04:be:0f:0b:da:da:28:dc:
                    49:f4:3f:e8:9c:16:ef:1d:99:9e:ac:8e:5b:84:56:
                    13:dd:3b:d9:3d:d9:dc:71:73:bb:91:4b:ce:3f:bd:
                    21:e4:de:6a:6b:7b:e8:a3:ce:84:0f:69:f8:c1:b1:
                    97:67:f6:a4:ea:c7:98:77:52:85:f2:a0:f2:ca:83:
                    05:50:b4:0d:7d:18:4c:93:5a:99:d2:ca:9e:31:09:
                    7e:a8:de:fb:a6:be:78:63:f4:81:2a:f1:16:1d:a2:
                    aa:00:e0:bb:10:a4:6d:de:24:2f:f2:06:94:db:74:
                    49:7c:be:8e:22:fb:d4:12:a3:c0:0b:1c:50:90:bf:
                    cb:7c:c5:56:d4:b2:90:20:ad:ff
                Exponent: 65537 (0x10001)
        X509v3 extensions:
            X509v3 Subject Key Identifier: 
                18:7D:15:70:C4:5B:38:05:AF:5B:4E:00:5B:0C:62:CC:3F:C5:B2:25
            X509v3 Key Usage: 
                Digital Signature, Certificate Sign, CRL Sign
            X509v3 Basic Constraints: critical
                CA:TRUE
            X509v3 Authority Key Identifier: 
                keyid:20:58:FD:44:83:43:B4:D2:D0:54:BA:2D:AD:20:61:B4:84:E1:49:71
                DirName:/CN=KriptoITS Root CA 20250619
                serial:7E:B0:20:E6:0A:95:A5:0C:25:BA:4C:4F:DD:9D:F7:5F:28:9D:8C:98
            X509v3 CRL Distribution Points: 
                Full Name:
                  URI:https://openxpki-its.jhr.my.id/download/KriptoITSRoot_CA.crl
            Authority Information Access: 
                CA Issuers - URI:https://openxpki-its.jhr.my.id/download/KriptoITSRoot_CA.crt
    Signature Algorithm: sha256WithRSAEncryption
    Signature Value:
        72:55:4a:1f:00:71:0a:50:41:26:de:dd:f1:02:d7:3c:0c:a9:
        c0:a9:77:c1:e8:c1:60:a6:69:54:96:8f:c4:26:2b:7b:9e:f1:
        b0:47:4f:9c:c3:f2:20:48:a5:32:9f:5c:74:50:16:b8:fe:ab:
        6f:ad:d6:56:f1:18:06:cc:56:f9:d6:27:0f:9e:d4:c5:03:a6:
        9a:78:71:e3:c7:1e:7c:0b:cf:bd:cd:2e:2d:8d:e7:98:d3:33:
        cd:85:01:7a:12:1a:0a:ff:ed:e4:14:c1:e9:aa:97:45:01:e8:
        5d:11:ff:dd:3c:17:f7:c0:31:b9:ec:15:f7:b3:04:06:f7:74:
        47:4a:57:74:0a:d0:fe:7f:c5:80:67:5e:56:64:e5:b0:61:b3:
        4f:e9:c3:0e:e7:b8:2b:e1:37:25:38:ac:bf:ae:1c:81:e5:f8:
        ed:ac:b0:6d:f5:b4:c9:0f:dc:29:5c:df:7a:15:c6:8e:90:82:
        04:87:73:20:d6:05:c4:2a:7b:4b:1f:2f:97:e4:ab:d1:f5:1e:
        a3:88:94:8f:b0:9f:f6:a7:81:33:d4:68:ea:59:37:72:a8:4a:
        af:20:03:d7:83:f3:83:cc:ee:02:e4:20:86:05:18:62:37:b1:
        be:ad:b1:4f:51:0b:5b:25:48:64:00:9b:5b:0a:da:79:75:08:
        2a:2b:01:c1:08:68:78:6d:33:b3:72:ae:98:d6:47:d7:21:60:
        fa:85:f1:c6:32:96:ba:5d:3f:89:3b:50:2c:2a:f0:cd:5b:f7:
        e4:89:7d:32:24:01:d5:8f:91:08:09:6b:c2:ec:8e:34:ee:11:
        ac:c0:9c:a5:07:2a:9f:bb:c8:c7:a9:4d:cd:63:47:7a:d3:20:
        81:8e:97:f6:45:e3:6a:e8:e3:1e:36:25:48:39:bd:75:5b:bd:
        95:b3:62:e8:42:c3:b8:b8:d4:4f:e3:6b:ab:ef:62:0e:e4:6e:
        ab:78:c9:1a:07:b0:08:52:06:bd:33:0c:42:f7:e6:05:44:be:
        ed:e8:51:ea:ca:c3
-----BEGIN CERTIFICATE-----
MIIFXTCCA8WgAwIBAgIUd8HSrWMdRrracHVxV4rMvUK2PpMwDQYJKoZIhvcNAQEL
BQAwJTEjMCEGA1UEAwwaS3JpcHRvSVRTIFJvb3QgQ0EgMjAyNTA2MTkwHhcNMjUw
NjE5MjMwNTM4WhcNMzAwNjIxMjMwNTM4WjBcMQswCQYDVQQGEwJJRDESMBAGA1UE
CgwJS3JpcHRvSVRTMQwwCgYDVQQLDANQS0kxKzApBgNVBAMMIktyaXB0b0lUUyBE
ZW1vIElzc3VpbmcgQ0EgMjAyNTA2MTkwggGiMA0GCSqGSIb3DQEBAQUAA4IBjwAw
ggGKAoIBgQDXWqmumN0Eqli9oe6WZDrIeWAghlmFfIncO1zDFHiuyW3hA/m5n6ek
4sJqIPBtCITbtE2101jj8P/mzffpQXIC9QknErpmvZqYuqa7JXOTDcagE7Jii3cE
VAeJLdJdOFhULMXitUJOCq1CgOolZgcxEZLwi4CATTdAyBYehAuBXPcwR2ZfEzdU
d393cuOEtVvx7+EKQxfYskoqk7izBz3Zdr9Uqyo0FPfZ9wkwokdK80240ug8KLm/
4tK5L8//ipt6kgM26Cpb2jqkd/JillqELhEp4S3b18e++WwC96atp0ZULVPFs4mF
zc7aWEGml/zMugBRFbsEvg8L2too3En0P+icFu8dmZ6sjluEVhPdO9k92dxxc7uR
S84/vSHk3mpre+ijzoQPafjBsZdn9qTqx5h3UoXyoPLKgwVQtA19GEyTWpnSyp4x
CX6o3vumvnhj9IEq8RYdoqoA4LsQpG3eJC/yBpTbdEl8vo4i+9QSo8ALHFCQv8t8
xVbUspAgrf8CAwEAAaOCAUwwggFIMB0GA1UdDgQWBBQYfRVwxFs4Ba9bTgBbDGLM
P8WyJTALBgNVHQ8EBAMCAYYwDwYDVR0TAQH/BAUwAwEB/zBgBgNVHSMEWTBXgBQg
WP1Eg0O00tBUui2tIGG0hOFJcaEppCcwJTEjMCEGA1UEAwwaS3JpcHRvSVRTIFJv
b3QgQ0EgMjAyNTA2MTmCFH6wIOYKlaUMJbpMT92d918onYyYME0GA1UdHwRGMEQw
QqBAoD6GPGh0dHBzOi8vb3Blbnhwa2ktaXRzLmpoci5teS5pZC9kb3dubG9hZC9L
cmlwdG9JVFNSb290X0NBLmNybDBYBggrBgEFBQcBAQRMMEowSAYIKwYBBQUHMAKG
PGh0dHBzOi8vb3Blbnhwa2ktaXRzLmpoci5teS5pZC9kb3dubG9hZC9LcmlwdG9J
VFNSb290X0NBLmNydDANBgkqhkiG9w0BAQsFAAOCAYEAclVKHwBxClBBJt7d8QLX
PAypwKl3wejBYKZpVJaPxCYre57xsEdPnMPyIEilMp9cdFAWuP6rb63WVvEYBsxW
+dYnD57UxQOmmnhx48cefAvPvc0uLY3nmNMzzYUBehIaCv/t5BTB6aqXRQHoXRH/
3TwX98AxuewV97MEBvd0R0pXdArQ/n/FgGdeVmTlsGGzT+nDDue4K+E3JTisv64c
geX47aywbfW0yQ/cKVzfehXGjpCCBIdzINYFxCp7Sx8vl+Sr0fUeo4iUj7Cf9qeB
M9Ro6lk3cqhKryAD14Pzg8zuAuQghgUYYjexvq2xT1ELWyVIZACbWwraeXUIKisB
wQhoeG0zs3KumNZH1yFg+oXxxjKWul0/iTtQLCrwzVv35Il9MiQB1Y+RCAlrwuyO
NO4RrMCcpQcqn7vIx6lNzWNHetMggY6X9kXjaujjHjYlSDm9dVu9lbNi6ELDuLjU
T+Nrq+9iDuRuq3jJGgewCFIGvTMMQvfmBUS+7ehR6srD
-----END CERTIFICATE-----
