Certificate:
    Data:
        Version: 3 (0x2)
        Serial Number:
            77:c1:d2:ad:63:1d:46:ba:da:70:75:71:57:8a:cc:bd:42:b6:3e:95
        Signature Algorithm: sha256WithRSAEncryption
        Issuer: C=ID, O=KriptoITS, OU=PKI, CN=KriptoITS Demo Issuing CA 20250619
        Validity
            Not Before: Jun 19 23:05:43 2025 GMT
            Not After : Jun 19 23:05:43 2028 GMT
        Subject: CN=openxpki-its.jhr.my.id
        Subject Public Key Info:
            Public Key Algorithm: rsaEncryption
                Public-Key: (3072 bit)
                Modulus:
                    00:af:58:ed:72:c1:5f:9f:e2:ff:f9:cc:d2:0b:63:
                    f2:f8:f3:75:29:97:84:95:b4:ba:8e:e3:d4:5c:70:
                    af:46:90:88:8d:cd:96:4b:86:ed:13:a6:a9:b3:d9:
                    9b:72:40:9f:17:90:65:a6:4d:a4:53:4f:e1:45:bf:
                    a5:d1:d2:35:d9:1a:10:1e:2c:56:39:85:27:cd:e4:
                    52:94:18:cf:18:8d:e7:e1:85:ca:c4:d5:3d:35:4e:
                    a3:69:18:51:d7:a4:74:4f:8f:93:77:5c:08:0a:7b:
                    b4:ff:0e:d3:10:7a:98:37:7a:ad:e9:83:30:e0:c1:
                    12:e7:54:aa:d5:c3:43:39:14:2a:60:b3:b0:35:0b:
                    64:75:49:e9:10:f2:f2:6b:cd:77:f2:08:c6:ca:0d:
                    31:13:56:e8:62:9f:5d:78:f8:37:c6:b7:6c:dd:6d:
                    56:e5:a2:c1:b9:3d:e0:0e:f8:cc:77:ff:54:df:45:
                    ea:86:65:99:df:f7:23:c5:ee:5f:11:94:eb:b8:e5:
                    6a:65:fe:85:ea:3e:4e:0e:e9:d9:ec:e4:12:bf:ca:
                    21:6c:95:53:ee:7e:58:71:4a:3d:92:e1:dc:b0:9b:
                    45:b7:0b:27:d9:c4:ef:12:f1:05:ec:7d:42:15:d2:
                    93:da:5d:18:e5:8a:01:2e:2b:90:66:52:d8:2d:e8:
                    ff:f8:f3:21:66:53:22:0e:d2:3c:1d:42:06:34:29:
                    50:2a:6b:f3:37:b1:f2:73:e6:2f:42:4e:80:38:43:
                    24:ca:db:4c:4c:8a:df:38:0d:2c:49:39:1f:ee:c4:
                    b7:da:e8:52:f8:fd:bc:80:15:f0:3c:47:6e:e8:9a:
                    85:dd:d9:8b:b7:0a:33:2c:08:93:63:f1:d4:ba:7c:
                    ec:fa:78:5f:19:0d:df:f0:d5:c7:1e:a9:40:07:71:
                    2b:d3:b2:8c:57:3e:37:e3:c0:85:20:0d:5f:62:c9:
                    5b:36:f9:ea:93:52:b4:b7:85:8b:ab:e9:21:85:4b:
                    b7:69:a8:03:e7:73:a5:09:d8:8d
                Exponent: 65537 (0x10001)
        X509v3 extensions:
            X509v3 Subject Key Identifier: 
                1C:F8:84:45:BB:B0:7C:68:B3:43:1B:8C:46:80:1F:8E:A0:BA:89:6D
            X509v3 Key Usage: critical
                Digital Signature, Key Encipherment
            X509v3 Extended Key Usage: 
                TLS Web Server Authentication, TLS Web Client Authentication
            X509v3 Basic Constraints: critical
                CA:FALSE
            X509v3 Subject Alternative Name: 
                DNS:openxpki-its.jhr.my.id
            X509v3 CRL Distribution Points: 
                Full Name:
                  URI:https://openxpki-its.jhr.my.id/download/KriptoITSIssuing_CA.crl
            Authority Information Access: 
                CA Issuers - URI:https://openxpki-its.jhr.my.id/download/KriptoITSIssuing_CA.crt
            X509v3 Authority Key Identifier: 
                18:7D:15:70:C4:5B:38:05:AF:5B:4E:00:5B:0C:62:CC:3F:C5:B2:25
    Signature Algorithm: sha256WithRSAEncryption
    Signature Value:
        49:a5:f7:68:60:a4:e6:0b:42:84:9d:a1:15:d4:02:ad:2e:34:
        e4:35:85:f7:12:73:ad:e5:13:fb:15:51:b7:f3:5f:b7:a3:25:
        cf:7b:02:0c:bb:a0:56:ab:88:b5:b4:d0:f2:50:65:32:2e:b3:
        0d:6a:a1:85:01:df:7e:44:16:cf:6e:4f:3e:e0:61:bb:68:59:
        dd:ee:9d:69:fa:b6:89:c8:86:28:5f:21:4b:6a:21:2b:16:69:
        aa:2b:92:d0:96:cf:74:8f:1c:4e:ef:01:e4:82:ca:36:16:79:
        6d:10:42:d5:21:49:ef:9f:cf:af:5f:66:2e:4a:b7:9d:c8:9a:
        ad:58:ec:77:bd:14:d6:5d:37:40:43:e5:33:20:ec:66:1c:47:
        dc:c0:be:6d:ab:85:44:52:36:46:94:29:29:e4:93:c0:aa:f8:
        5d:ac:5f:b6:97:35:6e:1d:77:77:4f:23:de:06:a9:d0:fb:39:
        91:64:6e:a3:7f:a1:a4:5d:97:00:e2:2a:3a:7a:79:4a:45:d2:
        3b:f8:58:70:57:59:03:99:99:2c:a6:ba:f7:ed:78:1c:48:95:
        e5:b6:34:55:34:2e:c6:dc:69:e4:98:57:96:03:a5:16:5a:73:
        62:8a:62:7f:0c:b3:a1:24:31:c8:f4:6a:bc:05:92:6f:68:3a:
        a0:a0:63:ad:f9:70:d6:a0:39:a6:8a:82:2e:b4:04:ee:77:1c:
        c7:83:38:53:6b:78:65:59:22:41:d4:b7:47:dc:77:70:88:9f:
        0e:5e:c9:4a:15:56:d3:92:9e:75:ad:b8:1b:3d:41:a0:ce:76:
        5d:ca:60:ea:ff:bf:4e:1d:a0:45:1b:fc:6b:fc:8d:1c:a3:d4:
        85:55:4d:a0:a2:e0:4e:ef:0e:29:6d:20:9e:de:f2:f3:89:bf:
        2a:bd:1e:57:f8:af:e8:75:1f:f1:da:1a:07:62:78:70:30:e4:
        f2:99:7b:49:34:de:15:c0:f4:e4:bb:98:18:e6:56:65:0e:b7:
        3c:0d:bf:ae:c8:4c
-----BEGIN CERTIFICATE-----
MIIFYDCCA8igAwIBAgIUd8HSrWMdRrracHVxV4rMvUK2PpUwDQYJKoZIhvcNAQEL
BQAwXDELMAkGA1UEBhMCSUQxEjAQBgNVBAoMCUtyaXB0b0lUUzEMMAoGA1UECwwD
UEtJMSswKQYDVQQDDCJLcmlwdG9JVFMgRGVtbyBJc3N1aW5nIENBIDIwMjUwNjE5
MB4XDTI1MDYxOTIzMDU0M1oXDTI4MDYxOTIzMDU0M1owITEfMB0GA1UEAwwWb3Bl
bnhwa2ktaXRzLmpoci5teS5pZDCCAaIwDQYJKoZIhvcNAQEBBQADggGPADCCAYoC
ggGBAK9Y7XLBX5/i//nM0gtj8vjzdSmXhJW0uo7j1Fxwr0aQiI3NlkuG7ROmqbPZ
m3JAnxeQZaZNpFNP4UW/pdHSNdkaEB4sVjmFJ83kUpQYzxiN5+GFysTVPTVOo2kY
UdekdE+Pk3dcCAp7tP8O0xB6mDd6remDMODBEudUqtXDQzkUKmCzsDULZHVJ6RDy
8mvNd/IIxsoNMRNW6GKfXXj4N8a3bN1tVuWiwbk94A74zHf/VN9F6oZlmd/3I8Xu
XxGU67jlamX+heo+Tg7p2ezkEr/KIWyVU+5+WHFKPZLh3LCbRbcLJ9nE7xLxBex9
QhXSk9pdGOWKAS4rkGZS2C3o//jzIWZTIg7SPB1CBjQpUCpr8zex8nPmL0JOgDhD
JMrbTEyK3zgNLEk5H+7Et9roUvj9vIAV8DxHbuiahd3Zi7cKMywIk2Px1Lp87Pp4
XxkN3/DVxx6pQAdxK9OyjFc+N+PAhSANX2LJWzb56pNStLeFi6vpIYVLt2moA+dz
pQnYjQIDAQABo4IBUzCCAU8wHQYDVR0OBBYEFBz4hEW7sHxos0MbjEaAH46guolt
MA4GA1UdDwEB/wQEAwIFoDAdBgNVHSUEFjAUBggrBgEFBQcDAQYIKwYBBQUHAwIw
DAYDVR0TAQH/BAIwADAhBgNVHREEGjAYghZvcGVueHBraS1pdHMuamhyLm15Lmlk
MFAGA1UdHwRJMEcwRaBDoEGGP2h0dHBzOi8vb3Blbnhwa2ktaXRzLmpoci5teS5p
ZC9kb3dubG9hZC9LcmlwdG9JVFNJc3N1aW5nX0NBLmNybDBbBggrBgEFBQcBAQRP
ME0wSwYIKwYBBQUHMAKGP2h0dHBzOi8vb3Blbnhwa2ktaXRzLmpoci5teS5pZC9k
b3dubG9hZC9LcmlwdG9JVFNJc3N1aW5nX0NBLmNydDAfBgNVHSMEGDAWgBQYfRVw
xFs4Ba9bTgBbDGLMP8WyJTANBgkqhkiG9w0BAQsFAAOCAYEASaX3aGCk5gtChJ2h
FdQCrS405DWF9xJzreUT+xVRt/Nft6Mlz3sCDLugVquItbTQ8lBlMi6zDWqhhQHf
fkQWz25PPuBhu2hZ3e6dafq2iciGKF8hS2ohKxZpqiuS0JbPdI8cTu8B5ILKNhZ5
bRBC1SFJ75/Pr19mLkq3nciarVjsd70U1l03QEPlMyDsZhxH3MC+bauFRFI2RpQp
KeSTwKr4Xaxftpc1bh13d08j3gap0Ps5kWRuo3+hpF2XAOIqOnp5SkXSO/hYcFdZ
A5mZLKa69+14HEiV5bY0VTQuxtxp5JhXlgOlFlpzYopifwyzoSQxyPRqvAWSb2g6
oKBjrflw1qA5poqCLrQE7nccx4M4U2t4ZVkiQdS3R9x3cIifDl7JShVW05Keda24
Gz1BoM52Xcpg6v+/Th2gRRv8a/yNHKPUhVVNoKLgTu8OKW0gnt7y84m/Kr0eV/iv
6HUf8doaB2J4cDDk8pl7STTeFcD05LuYGOZWZQ63PA2/rshM
-----END CERTIFICATE-----
